; Function Attrs: cold mustprogress uwtable
define dso_local void @_Z34Vmycpu_top___024root___eval_settleP20Vmycpu_top___024root(ptr noundef %0) local_unnamed_addr #6 {
  %2 = getelementptr inbounds i8, ptr %0, i64 219
  store i8 1, ptr %2, align 1
  br label %3

3:                                                ; preds = %1, %select.unfold
  %.067 = phi i32 [ 0, %1 ], [ %6, %select.unfold ]
  %4 = icmp ugt i32 %.067, 100
  br i1 %4, label %5, label %select.unfold

5:                                                ; preds = %3
  tail call void @_Z11VL_FATAL_MTPKciS0_S0_(ptr noundef nonnull @.str, i32 noundef 1, ptr noundef nonnull @.str.1, ptr noundef nonnull @.str.2)
  br label %select.unfold

select.unfold:                                    ; preds = %5, %3
  %6 = add i32 %.067, 1
  %7 = tail call noundef zeroext i1 @_Z38Vmycpu_top___024root___eval_phase__stlP20Vmycpu_top___024root(ptr noundef nonnull %0) #13
  store i8 0, ptr %2, align 1
  br i1 %7, label %3, label %8

8:                                                ; preds = %select.unfold
  ret void
}